; Function Attrs: mustprogress nofree nounwind willreturn memory(read, inaccessiblemem: none) uwtable
define internal noundef zeroext i1 @_ZN32pxrInternal_v0_24__pxrReserved__7VtValue13_TypeInfoImplISt10shared_ptrINS_12_GLOBAL__N_120_DispatchingResolver6_CacheEENS_19TfDelegatedCountPtrINS0_8_CountedIS6_EEEENS0_15_RemoteTypeInfoIS6_EEE15_ProxyHoldsTypeERKNSt15aligned_storageILm8ELm8EE4typeERKSt9type_info(ptr nocapture nonnull readnone align 8 %0, ptr nocapture noundef nonnull readonly align 8 dereferenceable(16) %1) #20 align 2 {
  %3 = getelementptr inbounds i8, ptr %1, i64 8
  %.val2 = load ptr, ptr %3, align 8
  %4 = icmp eq ptr %.val2, @_ZTSSt10shared_ptrIN32pxrInternal_v0_24__pxrReserved__12_GLOBAL__N_120_DispatchingResolver6_CacheEE
  br i1 %4, label %_ZN32pxrInternal_v0_24__pxrReserved__7VtValue12_ProxyHelperISt10shared_ptrINS_12_GLOBAL__N_120_DispatchingResolver6_CacheEEvE9HoldsTypeERKS6_RKSt9type_info.exit, label %5

5:                                                ; preds = %2
  %6 = load i8, ptr %.val2, align 1
  %7 = icmp eq i8 %6, 42
  %.idx.i.i.i.i = zext i1 %7 to i64
  %8 = getelementptr inbounds i8, ptr %.val2, i64 %.idx.i.i.i.i
  %9 = tail call i32 @strcmp(ptr noundef nonnull dereferenceable(96) @_ZTSSt10shared_ptrIN32pxrInternal_v0_24__pxrReserved__12_GLOBAL__N_120_DispatchingResolver6_CacheEE, ptr noundef nonnull readonly dereferenceable(1) %8) #15
  %10 = icmp eq i32 %9, 0
  br label %_ZN32pxrInternal_v0_24__pxrReserved__7VtValue12_ProxyHelperISt10shared_ptrINS_12_GLOBAL__N_120_DispatchingResolver6_CacheEEvE9HoldsTypeERKS6_RKSt9type_info.exit

_ZN32pxrInternal_v0_24__pxrReserved__7VtValue12_ProxyHelperISt10shared_ptrINS_12_GLOBAL__N_120_DispatchingResolver6_CacheEEvE9HoldsTypeERKS6_RKSt9type_info.exit: ; preds = %2, %5
  %.0.i.i.i = phi i1 [ true, %2 ], [ %10, %5 ]
  ret i1 %.0.i.i.i
}